target datalayout = "e-m:e-p270:32:32-p271:32:32-p272:64:64-i64:64-i128:128-f80:128-n8:16:32:64-S128"
target triple = "x86_64-pc-linux-gnu"

%struct.H5VL_loc_params_t = type { i32, i32, %union.anon }
%union.anon = type { %struct.H5VL_loc_by_idx }
%struct.H5VL_loc_by_idx = type { ptr, i32, i32, i64, i64 }
%struct.H5VL_loc_by_name = type { ptr, i64 }
%struct.H5VL_link_specific_args_t = type { i32, %union.anon.3 }
%union.anon.3 = type { %struct.H5VL_link_iterate_args_t }
%struct.H5VL_link_iterate_args_t = type { i8, i32, i32, ptr, ptr, ptr }

@H5_libinit_g = external global i8, align 1
@H5_libterm_g = external global i8, align 1
@.str = private unnamed_addr constant [103 x i8] c"generated/home/dtcxzyw/WorkSpace/Projects/compilers/llvm-opt-benchmark/bench/hdf5/hdf5/src/H5Gdeprec.c\00", align 1
@H5E_FUNC_g = external global i64, align 8
@H5E_CANTINIT_g = external global i64, align 8
@.str.1 = private unnamed_addr constant [30 x i8] c"library initialization failed\00", align 1
@H5E_CANTSET_g = external global i64, align 8
@.str.2 = private unnamed_addr constant [22 x i8] c"can't set API context\00", align 1
@H5E_ARGS_g = external global i64, align 8
@H5E_BADVALUE_g = external global i64, align 8
@H5E_BADTYPE_g = external global i64, align 8
@H5E_SYM_g = external global i64, align 8
@.str.10 = private unnamed_addr constant [40 x i8] c"can't set collective metadata read info\00", align 1
@.str.11 = private unnamed_addr constant [28 x i8] c"invalid location identifier\00", align 1
@H5P_LST_DATASET_XFER_ID_g = external global i64, align 8
@.str.16 = private unnamed_addr constant [8 x i8] c"no name\00", align 1
@H5P_LST_LINK_ACCESS_ID_g = external global i64, align 8
@__func__.H5Gunlink = private unnamed_addr constant [10 x i8] c"H5Gunlink\00", align 1
@H5E_CANTDELETE_g = external global i64, align 8
@.str.25 = private unnamed_addr constant [21 x i8] c"couldn't delete link\00", align 1

; Function Attrs: nounwind uwtable
define i32 @H5Gunlink(i64 noundef %0, ptr noundef %1) #0 {
  %3 = alloca i64, align 8
  %4 = alloca ptr, align 8
  %5 = alloca ptr, align 8
  %6 = alloca %struct.H5VL_link_specific_args_t, align 8
  %7 = alloca %struct.H5VL_loc_params_t, align 8
  %8 = alloca i32, align 4
  %9 = alloca i8, align 1
  %10 = alloca i8, align 1
  store i64 %0, ptr %3, align 8
  store ptr %1, ptr %4, align 8
  store i32 0, ptr %8, align 4
  store i8 0, ptr %9, align 1
  store i8 0, ptr %10, align 1
  %11 = load i8, ptr @H5_libinit_g, align 1
  %12 = trunc i8 %11 to i1
  br i1 %12, label %17, label %13

13:                                               ; preds = %2
  %14 = load i8, ptr @H5_libterm_g, align 1
  %15 = trunc i8 %14 to i1
  %16 = xor i1 %15, true
  br label %17

17:                                               ; preds = %13, %2
  %18 = phi i1 [ false, %2 ], [ %16, %13 ]
  %19 = xor i1 %18, true
  %20 = xor i1 %19, true
  %21 = zext i1 %20 to i32
  %22 = sext i32 %21 to i64
  %23 = icmp ne i64 %22, 0
  br i1 %23, label %24, label %48

24:                                               ; preds = %17
  %25 = call i32 @H5_init_library()
  %26 = icmp slt i32 %25, 0
  %27 = xor i1 %26, true
  %28 = xor i1 %27, true
  %29 = zext i1 %28 to i32
  %30 = sext i32 %29 to i64
  %31 = icmp ne i64 %30, 0
  br i1 %31, label %32, label %47

32:                                               ; preds = %24
  br label %33

33:                                               ; preds = %32
  br label %34

34:                                               ; preds = %33
  br label %35

35:                                               ; preds = %34
  %36 = load i64, ptr @H5E_FUNC_g, align 8
  %37 = load i64, ptr @H5E_CANTINIT_g, align 8
  %38 = call i32 (ptr, ptr, i32, i64, i64, ptr, ...) @H5E_printf_stack(ptr noundef @.str, ptr noundef @__func__.H5Gunlink, i32 noundef 575, i64 noundef %36, i64 noundef %37, ptr noundef @.str.1)
  br label %39

39:                                               ; preds = %35
  store i8 1, ptr %10, align 1
  %40 = load i8, ptr %10, align 1
  %41 = trunc i8 %40 to i1
  %42 = zext i1 %41 to i8
  store i8 %42, ptr %10, align 1
  br label %43

43:                                               ; preds = %39
  br label %44

44:                                               ; preds = %43
  store i32 -1, ptr %8, align 4
  br label %165

45:                                               ; No predecessors!
  br label %46

46:                                               ; preds = %45
  br label %47

47:                                               ; preds = %46, %24
  br label %48

48:                                               ; preds = %47, %17
  %49 = call i32 @H5CX_push()
  %50 = icmp slt i32 %49, 0
  %51 = xor i1 %50, true
  %52 = xor i1 %51, true
  %53 = zext i1 %52 to i32
  %54 = sext i32 %53 to i64
  %55 = icmp ne i64 %54, 0
  br i1 %55, label %56, label %71

56:                                               ; preds = %48
  br label %57

57:                                               ; preds = %56
  br label %58

58:                                               ; preds = %57
  br label %59

59:                                               ; preds = %58
  %60 = load i64, ptr @H5E_FUNC_g, align 8
  %61 = load i64, ptr @H5E_CANTSET_g, align 8
  %62 = call i32 (ptr, ptr, i32, i64, i64, ptr, ...) @H5E_printf_stack(ptr noundef @.str, ptr noundef @__func__.H5Gunlink, i32 noundef 575, i64 noundef %60, i64 noundef %61, ptr noundef @.str.2)
  br label %63

63:                                               ; preds = %59
  store i8 1, ptr %10, align 1
  %64 = load i8, ptr %10, align 1
  %65 = trunc i8 %64 to i1
  %66 = zext i1 %65 to i8
  store i8 %66, ptr %10, align 1
  br label %67

67:                                               ; preds = %63
  br label %68

68:                                               ; preds = %67
  store i32 -1, ptr %8, align 4
  br label %165

69:                                               ; No predecessors!
  br label %70

70:                                               ; preds = %69
  br label %72

71:                                               ; preds = %48
  store i8 1, ptr %9, align 1
  br label %72

72:                                               ; preds = %71, %70
  %73 = call i32 @H5E_clear_stack()
  %74 = load ptr, ptr %4, align 8
  %75 = icmp ne ptr %74, null
  br i1 %75, label %76, label %80

76:                                               ; preds = %72
  %77 = load ptr, ptr %4, align 8
  %78 = load i8, ptr %77, align 1
  %79 = icmp ne i8 %78, 0
  br i1 %79, label %95, label %80

80:                                               ; preds = %76, %72
  br label %81

81:                                               ; preds = %80
  br label %82

82:                                               ; preds = %81
  br label %83

83:                                               ; preds = %82
  %84 = load i64, ptr @H5E_ARGS_g, align 8
  %85 = load i64, ptr @H5E_BADVALUE_g, align 8
  %86 = call i32 (ptr, ptr, i32, i64, i64, ptr, ...) @H5E_printf_stack(ptr noundef @.str, ptr noundef @__func__.H5Gunlink, i32 noundef 579, i64 noundef %84, i64 noundef %85, ptr noundef @.str.16)
  br label %87

87:                                               ; preds = %83
  store i8 1, ptr %10, align 1
  %88 = load i8, ptr %10, align 1
  %89 = trunc i8 %88 to i1
  %90 = zext i1 %89 to i8
  store i8 %90, ptr %10, align 1
  br label %91

91:                                               ; preds = %87
  br label %92

92:                                               ; preds = %91
  store i32 -1, ptr %8, align 4
  br label %165

93:                                               ; No predecessors!
  br label %94

94:                                               ; preds = %93
  br label %95

95:                                               ; preds = %94, %76
  %96 = load i64, ptr %3, align 8
  %97 = call i32 @H5CX_set_loc(i64 noundef %96)
  %98 = icmp slt i32 %97, 0
  br i1 %98, label %99, label %114

99:                                               ; preds = %95
  br label %100

100:                                              ; preds = %99
  br label %101

101:                                              ; preds = %100
  br label %102

102:                                              ; preds = %101
  %103 = load i64, ptr @H5E_SYM_g, align 8
  %104 = load i64, ptr @H5E_CANTSET_g, align 8
  %105 = call i32 (ptr, ptr, i32, i64, i64, ptr, ...) @H5E_printf_stack(ptr noundef @.str, ptr noundef @__func__.H5Gunlink, i32 noundef 583, i64 noundef %103, i64 noundef %104, ptr noundef @.str.10)
  br label %106

106:                                              ; preds = %102
  store i8 1, ptr %10, align 1
  %107 = load i8, ptr %10, align 1
  %108 = trunc i8 %107 to i1
  %109 = zext i1 %108 to i8
  store i8 %109, ptr %10, align 1
  br label %110

110:                                              ; preds = %106
  br label %111

111:                                              ; preds = %110
  store i32 -1, ptr %8, align 4
  br label %165

112:                                              ; No predecessors!
  br label %113

113:                                              ; preds = %112
  br label %114

114:                                              ; preds = %113, %95
  %115 = getelementptr inbounds %struct.H5VL_loc_params_t, ptr %7, i32 0, i32 1
  store i32 1, ptr %115, align 4
  %116 = load i64, ptr %3, align 8
  %117 = call i32 @H5I_get_type(i64 noundef %116)
  %118 = getelementptr inbounds %struct.H5VL_loc_params_t, ptr %7, i32 0, i32 0
  store i32 %117, ptr %118, align 8
  %119 = load ptr, ptr %4, align 8
  %120 = getelementptr inbounds %struct.H5VL_loc_params_t, ptr %7, i32 0, i32 2
  %121 = getelementptr inbounds %struct.H5VL_loc_by_name, ptr %120, i32 0, i32 0
  store ptr %119, ptr %121, align 8
  %122 = load i64, ptr @H5P_LST_LINK_ACCESS_ID_g, align 8
  %123 = getelementptr inbounds %struct.H5VL_loc_params_t, ptr %7, i32 0, i32 2
  %124 = getelementptr inbounds %struct.H5VL_loc_by_name, ptr %123, i32 0, i32 1
  store i64 %122, ptr %124, align 8
  %125 = load i64, ptr %3, align 8
  %126 = call ptr @H5I_object(i64 noundef %125)
  store ptr %126, ptr %5, align 8
  %127 = icmp eq ptr null, %126
  br i1 %127, label %128, label %143

128:                                              ; preds = %114
  br label %129

129:                                              ; preds = %128
  br label %130

130:                                              ; preds = %129
  br label %131

131:                                              ; preds = %130
  %132 = load i64, ptr @H5E_ARGS_g, align 8
  %133 = load i64, ptr @H5E_BADTYPE_g, align 8
  %134 = call i32 (ptr, ptr, i32, i64, i64, ptr, ...) @H5E_printf_stack(ptr noundef @.str, ptr noundef @__func__.H5Gunlink, i32 noundef 592, i64 noundef %132, i64 noundef %133, ptr noundef @.str.11)
  br label %135

135:                                              ; preds = %131
  store i8 1, ptr %10, align 1
  %136 = load i8, ptr %10, align 1
  %137 = trunc i8 %136 to i1
  %138 = zext i1 %137 to i8
  store i8 %138, ptr %10, align 1
  br label %139

139:                                              ; preds = %135
  br label %140

140:                                              ; preds = %139
  store i32 -1, ptr %8, align 4
  br label %165

141:                                              ; No predecessors!
  br label %142

142:                                              ; preds = %141
  br label %143

143:                                              ; preds = %142, %114
  %144 = getelementptr inbounds %struct.H5VL_link_specific_args_t, ptr %6, i32 0, i32 0
  store i32 0, ptr %144, align 8
  %145 = load ptr, ptr %5, align 8
  %146 = load i64, ptr @H5P_LST_DATASET_XFER_ID_g, align 8
  %147 = call i32 @H5VL_link_specific(ptr noundef %145, ptr noundef %7, ptr noundef %6, i64 noundef %146, ptr noundef null)
  %148 = icmp slt i32 %147, 0
  br i1 %148, label %149, label %164

149:                                              ; preds = %143
  br label %150

150:                                              ; preds = %149
  br label %151

151:                                              ; preds = %150
  br label %152

152:                                              ; preds = %151
  %153 = load i64, ptr @H5E_SYM_g, align 8
  %154 = load i64, ptr @H5E_CANTDELETE_g, align 8
  %155 = call i32 (ptr, ptr, i32, i64, i64, ptr, ...) @H5E_printf_stack(ptr noundef @.str, ptr noundef @__func__.H5Gunlink, i32 noundef 599, i64 noundef %153, i64 noundef %154, ptr noundef @.str.25)
  br label %156

156:                                              ; preds = %152
  store i8 1, ptr %10, align 1
  %157 = load i8, ptr %10, align 1
  %158 = trunc i8 %157 to i1
  %159 = zext i1 %158 to i8
  store i8 %159, ptr %10, align 1
  br label %160

160:                                              ; preds = %156
  br label %161

161:                                              ; preds = %160
  store i32 -1, ptr %8, align 4
  br label %165

162:                                              ; No predecessors!
  br label %163

163:                                              ; preds = %162
  br label %164

164:                                              ; preds = %163, %143
  br label %165

165:                                              ; preds = %164, %161, %140, %111, %92, %68, %44
  %166 = load i8, ptr %9, align 1
  %167 = trunc i8 %166 to i1
  %168 = xor i1 %167, true
  %169 = xor i1 %168, true
  %170 = zext i1 %169 to i32
  %171 = sext i32 %170 to i64
  %172 = icmp ne i64 %171, 0
  br i1 %172, label %173, label %175

173:                                              ; preds = %165
  %174 = call i32 @H5CX_pop(i1 noundef zeroext true)
  store i8 0, ptr %9, align 1
  br label %175

175:                                              ; preds = %173, %165
  %176 = load i8, ptr %10, align 1
  %177 = trunc i8 %176 to i1
  %178 = xor i1 %177, true
  %179 = xor i1 %178, true
  %180 = zext i1 %179 to i32
  %181 = sext i32 %180 to i64
  %182 = icmp ne i64 %181, 0
  br i1 %182, label %183, label %185

183:                                              ; preds = %175
  %184 = call i32 @H5E_dump_api_stack()
  br label %185

185:                                              ; preds = %183, %175
  %186 = load i32, ptr %8, align 4
  ret i32 %186
}