; Function Attrs: nounwind uwtable
define range(i32 -1, 1) i32 @H5Gunlink(i64 noundef %0, ptr noundef %1) local_unnamed_addr #1 {
  %3 = alloca %struct.H5VL_link_specific_args_t, align 8
  %4 = alloca %struct.H5VL_loc_params_t, align 8
  %5 = load i8, ptr @H5_libinit_g, align 1
  %6 = trunc i8 %5 to i1
  %7 = load i8, ptr @H5_libterm_g, align 1
  %8 = trunc i8 %7 to i1
  %9 = select i1 %6, i1 true, i1 %8
  br i1 %9, label %17, label %10

10:                                               ; preds = %2
  %11 = tail call i32 @H5_init_library() #4
  %12 = icmp slt i32 %11, 0
  br i1 %12, label %13, label %17

13:                                               ; preds = %10
  %14 = load i64, ptr @H5E_FUNC_g, align 8
  %15 = load i64, ptr @H5E_CANTINIT_g, align 8
  %16 = tail call i32 (ptr, ptr, i32, i64, i64, ptr, ...) @H5E_printf_stack(ptr noundef nonnull @.str, ptr noundef nonnull @__func__.H5Gunlink, i32 noundef 575, i64 noundef %14, i64 noundef %15, ptr noundef nonnull @.str.1) #4
  br label %.thread28

17:                                               ; preds = %10, %2
  %18 = tail call i32 @H5CX_push() #4
  %19 = icmp slt i32 %18, 0
  br i1 %19, label %20, label %24

20:                                               ; preds = %17
  %21 = load i64, ptr @H5E_FUNC_g, align 8
  %22 = load i64, ptr @H5E_CANTSET_g, align 8
  %23 = tail call i32 (ptr, ptr, i32, i64, i64, ptr, ...) @H5E_printf_stack(ptr noundef nonnull @.str, ptr noundef nonnull @__func__.H5Gunlink, i32 noundef 575, i64 noundef %21, i64 noundef %22, ptr noundef nonnull @.str.2) #4
  br label %.thread28

24:                                               ; preds = %17
  %25 = tail call i32 @H5E_clear_stack() #4
  %.not = icmp eq ptr %1, null
  br i1 %.not, label %28, label %26

26:                                               ; preds = %24
  %27 = load i8, ptr %1, align 1
  %.not19 = icmp eq i8 %27, 0
  br i1 %.not19, label %28, label %32

28:                                               ; preds = %24, %26
  %29 = load i64, ptr @H5E_ARGS_g, align 8
  %30 = load i64, ptr @H5E_BADVALUE_g, align 8
  %31 = tail call i32 (ptr, ptr, i32, i64, i64, ptr, ...) @H5E_printf_stack(ptr noundef nonnull @.str, ptr noundef nonnull @__func__.H5Gunlink, i32 noundef 579, i64 noundef %29, i64 noundef %30, ptr noundef nonnull @.str.16) #4
  br label %.thread34

32:                                               ; preds = %26
  %33 = tail call i32 @H5CX_set_loc(i64 noundef %0) #4
  %34 = icmp slt i32 %33, 0
  br i1 %34, label %35, label %39

35:                                               ; preds = %32
  %36 = load i64, ptr @H5E_SYM_g, align 8
  %37 = load i64, ptr @H5E_CANTSET_g, align 8
  %38 = tail call i32 (ptr, ptr, i32, i64, i64, ptr, ...) @H5E_printf_stack(ptr noundef nonnull @.str, ptr noundef nonnull @__func__.H5Gunlink, i32 noundef 583, i64 noundef %36, i64 noundef %37, ptr noundef nonnull @.str.10) #4
  br label %.thread34

39:                                               ; preds = %32
  %40 = getelementptr inbounds i8, ptr %4, i64 4
  store i32 1, ptr %40, align 4
  %41 = tail call i32 @H5I_get_type(i64 noundef %0) #4
  store i32 %41, ptr %4, align 8
  %42 = getelementptr inbounds i8, ptr %4, i64 8
  store ptr %1, ptr %42, align 8
  %43 = load i64, ptr @H5P_LST_LINK_ACCESS_ID_g, align 8
  %44 = getelementptr inbounds i8, ptr %4, i64 16
  store i64 %43, ptr %44, align 8
  %45 = tail call ptr @H5I_object(i64 noundef %0) #4
  %46 = icmp eq ptr %45, null
  br i1 %46, label %47, label %51

47:                                               ; preds = %39
  %48 = load i64, ptr @H5E_ARGS_g, align 8
  %49 = load i64, ptr @H5E_BADTYPE_g, align 8
  %50 = tail call i32 (ptr, ptr, i32, i64, i64, ptr, ...) @H5E_printf_stack(ptr noundef nonnull @.str, ptr noundef nonnull @__func__.H5Gunlink, i32 noundef 592, i64 noundef %48, i64 noundef %49, ptr noundef nonnull @.str.11) #4
  br label %.thread34

51:                                               ; preds = %39
  store i32 0, ptr %3, align 8
  %52 = load i64, ptr @H5P_LST_DATASET_XFER_ID_g, align 8
  %53 = call i32 @H5VL_link_specific(ptr noundef nonnull %45, ptr noundef nonnull %4, ptr noundef nonnull %3, i64 noundef %52, ptr noundef null) #4
  %54 = icmp slt i32 %53, 0
  br i1 %54, label %55, label %60

55:                                               ; preds = %51
  %56 = load i64, ptr @H5E_SYM_g, align 8
  %57 = load i64, ptr @H5E_CANTDELETE_g, align 8
  %58 = call i32 (ptr, ptr, i32, i64, i64, ptr, ...) @H5E_printf_stack(ptr noundef nonnull @.str, ptr noundef nonnull @__func__.H5Gunlink, i32 noundef 599, i64 noundef %56, i64 noundef %57, ptr noundef nonnull @.str.25) #4
  br label %.thread34

.thread34:                                        ; preds = %28, %55, %47, %35
  %59 = call i32 @H5CX_pop(i1 noundef zeroext true) #4
  br label %.thread28

60:                                               ; preds = %51
  %61 = call i32 @H5CX_pop(i1 noundef zeroext true) #4
  br label %63

.thread28:                                        ; preds = %20, %13, %.thread34
  %62 = call i32 @H5E_dump_api_stack() #4
  br label %63

63:                                               ; preds = %60, %.thread28
  %.0162331 = phi i32 [ -1, %.thread28 ], [ 0, %60 ]
  ret i32 %.0162331
}